(dp0
S'd'
p1
(dp2
S''
p3
(dp4
S'df'
p5
I38
sS'tfs'
p6
(dp7
I1
I4034
sI2
I6588
sI3
I3851
sI4
I4623
sI5
I7376
sI6
I6941
sI7
I6571
sI8
I4462
sI9
I2591
sI10
I32007
sI11
I1787
sI12
I596
sI13
I515
sI14
I1193
sI15
I7030
sI16
I1415
sI17
I1606
sI18
I1526
sI19
I3015
sI20
I1149
sI21
I2506
sI22
I3412
sI23
I6460
sI24
I811
sI25
I3013
sI26
I1671
sI27
I2418
sI28
I3974
sI29
I2145
sI30
I3727
sI31
I5221
sI32
I2942
sI33
I3025
sI34
I1883
sI35
I111
sI36
I3964
sI37
I4398
sI38
I3069
sssS'all'
p8
(dp9
g5
I38
sg6
(dp10
I1
I26
sI2
I61
sI3
I16
sI4
I20
sI5
I78
sI6
I91
sI7
I48
sI8
I38
sI9
I20
sI10
I280
sI11
I30
sI12
I10
sI13
I3
sI14
I9
sI15
I52
sI16
I9
sI17
I12
sI18
I6
sI19
I44
sI20
I3
sI21
I22
sI22
I8
sI23
I61
sI24
I10
sI25
I14
sI26
I18
sI27
I11
sI28
I29
sI29
I8
sI30
I26
sI31
I66
sI32
I20
sI33
I17
sI34
I15
sI35
I2
sI36
I26
sI37
I31
sI38
I33
sssS'just'
p11
(dp12
g5
I37
sg6
(dp13
I1
I14
sI2
I21
sI3
I7
sI4
I10
sI5
I31
sI6
I38
sI7
I18
sI8
I21
sI9
I19
sI10
I131
sI11
I12
sI12
I1
sI13
I6
sI14
I6
sI15
I25
sI16
I7
sI17
I8
sI18
I3
sI19
I18
sI20
I2
sI21
I17
sI22
I6
sI23
I24
sI24
I2
sI25
I8
sI26
I7
sI27
I1
sI28
I17
sI29
I5
sI30
I26
sI31
I23
sI32
I8
sI33
I12
sI34
I4
sI36
I22
sI37
I25
sI38
I21
sssS'able'
p14
(dp15
g5
I24
sg6
(dp16
I1
I1
sI2
I2
sI5
I2
sI6
I13
sI7
I2
sI10
I3
sI15
I5
sI16
I1
sI17
I1
sI18
I1
sI19
I12
sI21
I5
sI22
I2
sI24
I1
sI25
I2
sI26
I1
sI28
I2
sI29
I1
sI30
I1
sI31
I1
sI35
I1
sI36
I4
sI37
I3
sI38
I1
sssS'its'
p17
(dp18
g5
I36
sg6
(dp19
I1
I7
sI2
I11
sI3
I2
sI4
I7
sI5
I36
sI6
I26
sI7
I22
sI8
I23
sI9
I5
sI10
I120
sI11
I10
sI14
I3
sI15
I15
sI16
I8
sI17
I6
sI18
I4
sI19
I43
sI20
I7
sI21
I12
sI22
I11
sI23
I14
sI24
I3
sI25
I12
sI26
I6
sI27
I8
sI28
I20
sI29
I9
sI30
I8
sI31
I11
sI32
I11
sI33
I11
sI34
I6
sI35
I1
sI36
I16
sI37
I20
sI38
I13
sssS'how'
p20
(dp21
g5
I36
sg6
(dp22
I1
I13
sI2
I4
sI3
I4
sI4
I5
sI5
I9
sI6
I14
sI7
I25
sI8
I12
sI9
I4
sI10
I70
sI11
I3
sI12
I5
sI13
I5
sI14
I6
sI15
I10
sI16
I3
sI17
I6
sI18
I4
sI19
I14
sI21
I11
sI22
I1
sI23
I7
sI24
I2
sI25
I8
sI26
I5
sI27
I1
sI28
I7
sI29
I2
sI30
I3
sI31
I7
sI32
I15
sI33
I9
sI34
I1
sI36
I17
sI37
I9
sI38
I11
sssS'had'
p23
(dp24
g5
I32
sg6
(dp25
I1
I11
sI2
I9
sI3
I1
sI5
I16
sI6
I17
sI7
I13
sI8
I4
sI9
I5
sI10
I83
sI11
I6
sI12
I13
sI15
I18
sI16
I2
sI18
I2
sI19
I8
sI20
I3
sI21
I2
sI22
I1
sI23
I6
sI25
I3
sI26
I3
sI27
I3
sI28
I11
sI29
I6
sI30
I11
sI31
I9
sI32
I5
sI33
I6
sI34
I4
sI36
I13
sI37
I5
sI38
I7
sssS'should'
p26
(dp27
g5
I36
sg6
(dp28
I1
I4
sI2
I1
sI3
I3
sI4
I9
sI5
I16
sI6
I43
sI7
I32
sI8
I20
sI10
I113
sI11
I8
sI12
I5
sI13
I6
sI14
I5
sI15
I9
sI16
I3
sI17
I2
sI18
I5
sI19
I12
sI20
I1
sI21
I16
sI22
I4
sI23
I3
sI24
I9
sI25
I17
sI26
I7
sI27
I1
sI28
I2
sI29
I1
sI30
I1
sI31
I6
sI32
I11
sI33
I7
sI34
I5
sI36
I25
sI37
I4
sI38
I14
sssS'to'
p29
(dp30
g5
I38
sg6
(dp31
I1
I137
sI2
I143
sI3
I75
sI4
I114
sI5
I275
sI6
I351
sI7
I363
sI8
I177
sI9
I62
sI10
I1031
sI11
I57
sI12
I51
sI13
I43
sI14
I60
sI15
I242
sI16
I77
sI17
I48
sI18
I66
sI19
I219
sI20
I42
sI21
I214
sI22
I44
sI23
I154
sI24
I30
sI25
I155
sI26
I77
sI27
I70
sI28
I128
sI29
I117
sI30
I111
sI31
I146
sI32
I133
sI33
I117
sI34
I54
sI35
I3
sI36
I295
sI37
I120
sI38
I135
sssS'only'
p32
(dp33
g5
I37
sg6
(dp34
I1
I8
sI2
I9
sI3
I5
sI4
I6
sI5
I10
sI6
I29
sI7
I29
sI8
I19
sI9
I1
sI10
I88
sI11
I6
sI12
I8
sI13
I3
sI14
I2
sI15
I6
sI16
I8
sI17
I3
sI18
I4
sI19
I18
sI20
I2
sI21
I13
sI22
I4
sI23
I12
sI24
I1
sI25
I8
sI26
I10
sI27
I5
sI28
I5
sI29
I12
sI30
I4
sI31
I8
sI32
I9
sI33
I8
sI34
I4
sI36
I15
sI37
I4
sI38
I5
sssS'has'
p35
(dp36
g5
I37
sg6
(dp37
I1
I29
sI2
I6
sI3
I4
sI4
I5
sI5
I14
sI6
I20
sI7
I42
sI8
I14
sI9
I3
sI10
I161
sI11
I5
sI12
I12
sI13
I6
sI14
I2
sI15
I17
sI16
I12
sI17
I2
sI18
I4
sI19
I46
sI20
I6
sI21
I26
sI22
I2
sI23
I7
sI24
I5
sI25
I13
sI26
I14
sI27
I12
sI28
I12
sI29
I3
sI30
I8
sI31
I9
sI32
I19
sI33
I12
sI34
I6
sI36
I23
sI37
I7
sI38
I13
sssS'might'
p38
(dp39
g5
I21
sg6
(dp40
I32
I2
sI33
I1
sI2
I2
sI4
I3
sI5
I1
sI6
I5
sI7
I2
sI8
I5
sI10
I15
sI34
I1
sI14
I1
sI16
I1
sI18
I1
sI19
I1
sI21
I3
sI23
I1
sI25
I4
sI38
I4
sI29
I1
sI30
I2
sI36
I2
sssS'then'
p41
(dp42
g5
I32
sg6
(dp43
I1
I4
sI2
I12
sI4
I7
sI5
I6
sI6
I25
sI7
I14
sI8
I11
sI9
I1
sI10
I82
sI11
I3
sI12
I2
sI14
I2
sI15
I4
sI16
I2
sI17
I5
sI18
I2
sI19
I11
sI21
I3
sI23
I6
sI24
I1
sI25
I10
sI26
I3
sI27
I8
sI28
I7
sI29
I4
sI30
I5
sI31
I4
sI32
I6
sI33
I5
sI36
I9
sI37
I6
sI38
I13
sssS'them'
p44
(dp45
g5
I37
sg6
(dp46
I1
I2
sI2
I5
sI3
I5
sI4
I21
sI5
I19
sI6
I21
sI7
I16
sI8
I18
sI10
I79
sI11
I3
sI12
I13
sI13
I2
sI14
I6
sI15
I9
sI16
I4
sI17
I7
sI18
I8
sI19
I20
sI20
I1
sI21
I17
sI22
I1
sI23
I9
sI24
I4
sI25
I21
sI26
I8
sI27
I5
sI28
I8
sI29
I5
sI30
I13
sI31
I8
sI32
I10
sI33
I14
sI34
I5
sI35
I2
sI36
I30
sI37
I5
sI38
I19
sssS'his'
p47
(dp48
g5
I34
sg6
(dp49
I1
I15
sI2
I1
sI3
I1
sI4
I5
sI5
I13
sI6
I5
sI7
I11
sI8
I3
sI10
I75
sI11
I5
sI13
I2
sI14
I2
sI15
I3
sI16
I2
sI17
I2
sI18
I2
sI19
I6
sI20
I4
sI21
I4
sI23
I4
sI24
I1
sI25
I1
sI26
I5
sI27
I2
sI28
I6
sI29
I1
sI30
I7
sI31
I2
sI32
I4
sI33
I5
sI34
I2
sI36
I7
sI37
I7
sI38
I7
sssS'get'
p50
(dp51
g5
I34
sg6
(dp52
I1
I9
sI2
I10
sI3
I3
sI4
I2
sI5
I24
sI6
I28
sI7
I31
sI8
I4
sI9
I3
sI10
I54
sI11
I4
sI13
I3
sI14
I3
sI15
I23
sI16
I7
sI17
I3
sI18
I3
sI19
I8
sI20
I4
sI21
I15
sI23
I15
sI24
I2
sI25
I9
sI26
I6
sI27
I1
sI28
I12
sI29
I3
sI30
I5
sI31
I7
sI32
I10
sI33
I11
sI36
I22
sI37
I5
sI38
I11
sssS'cannot'
p53
(dp54
g5
I21
sg6
(dp55
I32
I2
sI1
I1
sI4
I1
sI5
I1
sI6
I9
sI7
I2
sI8
I2
sI10
I9
sI11
I3
sI12
I2
sI13
I1
sI15
I1
sI16
I1
sI18
I3
sI19
I9
sI21
I2
sI25
I8
sI33
I1
sI38
I2
sI28
I1
sI36
I6
sssS'every'
p56
(dp57
g5
I34
sg6
(dp58
I1
I2
sI2
I4
sI3
I2
sI4
I2
sI5
I12
sI6
I19
sI7
I13
sI8
I9
sI9
I2
sI10
I31
sI11
I2
sI12
I1
sI14
I1
sI15
I3
sI16
I3
sI17
I2
sI19
I4
sI21
I6
sI22
I2
sI23
I3
sI24
I1
sI25
I6
sI26
I1
sI27
I3
sI28
I5
sI29
I2
sI30
I6
sI31
I5
sI32
I3
sI33
I6
sI34
I3
sI36
I4
sI37
I4
sI38
I8
sssS'they'
p59
(dp60
g5
I36
sg6
(dp61
I1
I19
sI2
I9
sI3
I10
sI4
I32
sI5
I15
sI6
I39
sI7
I44
sI8
I40
sI9
I2
sI10
I237
sI11
I14
sI12
I11
sI14
I6
sI15
I3
sI16
I7
sI17
I3
sI18
I20
sI19
I33
sI20
I3
sI21
I23
sI22
I3
sI23
I6
sI24
I9
sI25
I20
sI26
I30
sI27
I5
sI28
I5
sI29
I11
sI30
I3
sI31
I16
sI32
I22
sI33
I25
sI34
I3
sI36
I27
sI37
I7
sI38
I17
sssS'not'
p62
(dp63
g5
I37
sg6
(dp64
I1
I47
sI2
I24
sI3
I16
sI4
I31
sI5
I34
sI6
I79
sI7
I68
sI8
I56
sI9
I5
sI10
I394
sI11
I21
sI12
I20
sI13
I10
sI14
I15
sI15
I26
sI16
I16
sI17
I10
sI18
I12
sI19
I71
sI20
I6
sI21
I47
sI22
I13
sI23
I28
sI24
I12
sI25
I38
sI26
I27
sI27
I8
sI28
I28
sI29
I13
sI30
I18
sI31
I23
sI32
I38
sI33
I30
sI34
I13
sI36
I73
sI37
I22
sI38
I43
sssS'him'
p65
(dp66
g5
I25
sg6
(dp67
I1
I7
sI2
I3
sI4
I3
sI5
I2
sI6
I1
sI7
I5
sI8
I1
sI10
I36
sI11
I2
sI12
I10
sI15
I1
sI17
I5
sI19
I7
sI21
I2
sI23
I2
sI25
I2
sI27
I1
sI28
I3
sI30
I3
sI31
I1
sI32
I4
sI33
I3
sI36
I2
sI37
I1
sI38
I5
sssS'nor'
p68
(dp69
g5
I12
sg6
(dp70
I32
I1
sI33
I1
sI34
I1
sI38
I1
sI6
I1
sI10
I6
sI14
I1
sI15
I1
sI21
I1
sI24
I1
sI28
I1
sI30
I1
sssS'like'
p71
(dp72
g5
I38
sg6
(dp73
I1
I21
sI2
I10
sI3
I6
sI4
I17
sI5
I41
sI6
I60
sI7
I28
sI8
I29
sI9
I10
sI10
I164
sI11
I8
sI12
I5
sI13
I1
sI14
I8
sI15
I34
sI16
I16
sI17
I6
sI18
I10
sI19
I35
sI20
I4
sI21
I28
sI22
I9
sI23
I35
sI24
I5
sI25
I23
sI26
I11
sI27
I6
sI28
I19
sI29
I13
sI30
I22
sI31
I26
sI32
I19
sI33
I16
sI34
I2
sI35
I1
sI36
I27
sI37
I29
sI38
I12
sssS'did'
p74
(dp75
g5
I33
sg6
(dp76
I1
I13
sI2
I9
sI3
I8
sI4
I7
sI5
I6
sI6
I11
sI7
I4
sI8
I4
sI9
I4
sI10
I63
sI11
I4
sI12
I6
sI13
I1
sI15
I4
sI16
I5
sI18
I4
sI19
I3
sI20
I1
sI21
I1
sI22
I3
sI23
I4
sI25
I1
sI26
I2
sI27
I2
sI28
I8
sI30
I5
sI31
I3
sI32
I5
sI33
I8
sI34
I1
sI36
I4
sI37
I3
sI38
I1
sssS'these'
p77
(dp78
g5
I33
sg6
(dp79
I1
I5
sI2
I1
sI3
I2
sI4
I9
sI5
I6
sI6
I26
sI7
I20
sI8
I9
sI10
I48
sI11
I2
sI13
I5
sI14
I4
sI15
I1
sI16
I7
sI17
I2
sI18
I6
sI19
I11
sI21
I14
sI23
I4
sI24
I4
sI25
I1
sI26
I4
sI27
I3
sI28
I4
sI29
I5
sI30
I1
sI31
I3
sI32
I6
sI33
I5
sI34
I2
sI36
I8
sI37
I6
sI38
I13
sssS'either'
p80
(dp81
g5
I19
sg6
(dp82
I32
I1
sI1
I2
sI3
I1
sI36
I2
sI5
I1
sI6
I5
sI7
I4
sI8
I1
sI10
I11
sI11
I1
sI33
I2
sI20
I1
sI21
I1
sI22
I1
sI25
I2
sI26
I2
sI38
I1
sI30
I2
sI31
I1
sssS'where'
p83
(dp84
g5
I28
sg6
(dp85
I1
I3
sI2
I3
sI3
I2
sI4
I2
sI5
I1
sI6
I13
sI7
I15
sI8
I4
sI9
I3
sI10
I31
sI12
I1
sI14
I4
sI15
I6
sI16
I5
sI17
I2
sI19
I11
sI20
I2
sI21
I7
sI24
I3
sI25
I8
sI26
I4
sI28
I6
sI29
I12
sI30
I3
sI31
I8
sI32
I1
sI36
I9
sI38
I1
sssS'because'
p86
(dp87
g5
I35
sg6
(dp88
I1
I7
sI2
I2
sI3
I3
sI4
I5
sI5
I13
sI6
I12
sI7
I22
sI8
I13
sI9
I1
sI10
I62
sI11
I1
sI12
I2
sI14
I3
sI15
I2
sI16
I1
sI17
I4
sI18
I2
sI19
I7
sI20
I2
sI21
I10
sI22
I1
sI23
I5
sI24
I1
sI25
I4
sI26
I3
sI28
I2
sI29
I3
sI30
I7
sI31
I6
sI32
I4
sI33
I2
sI34
I7
sI36
I24
sI37
I4
sI38
I2
sssS'says'
p89
(dp90
g5
I13
sg6
(dp91
I32
I1
sI1
I3
sI36
I1
sI5
I1
sI6
I2
sI10
I13
sI12
I1
sI16
I1
sI18
I1
sI22
I1
sI26
I2
sI28
I1
sI31
I2
sssS'often'
p92
(dp93
g5
I15
sg6
(dp94
I33
I3
sI36
I6
sI5
I2
sI7
I6
sI8
I2
sI9
I1
sI10
I1
sI14
I1
sI15
I2
sI19
I1
sI21
I1
sI25
I1
sI26
I1
sI28
I3
sI31
I1
sssS'some'
p95
(dp96
g5
I36
sg6
(dp97
I1
I10
sI2
I11
sI3
I3
sI4
I9
sI5
I21
sI6
I30
sI7
I23
sI8
I14
sI9
I4
sI10
I89
sI11
I4
sI12
I2
sI13
I5
sI14
I5
sI15
I25
sI16
I5
sI17
I3
sI19
I16
sI20
I3
sI21
I10
sI22
I1
sI23
I12
sI24
I2
sI25
I11
sI26
I3
sI27
I3
sI28
I8
sI29
I7
sI30
I10
sI31
I13
sI32
I12
sI33
I10
sI34
I1
sI36
I19
sI37
I10
sI38
I21
sssS'likely'
p98
(dp99
g5
I8
sg6
(dp100
I4
I1
sI5
I2
sI6
I1
sI10
I1
sI15
I2
sI19
I1
sI21
I1
sI38
I1
sssS'are'
p101
(dp102
g5
I37
sg6
(dp103
I1
I38
sI2
I31
sI3
I13
sI4
I27
sI5
I52
sI6
I102
sI7
I130
sI8
I53
sI9
I10
sI10
I323
sI11
I14
sI12
I12
sI13
I7
sI14
I7
sI15
I45
sI16
I26
sI17
I14
sI18
I15
sI19
I66
sI20
I12
sI21
I53
sI22
I15
sI23
I33
sI24
I18
sI25
I40
sI26
I28
sI27
I22
sI28
I31
sI29
I31
sI30
I21
sI31
I40
sI32
I38
sI33
I39
sI34
I8
sI36
I95
sI37
I20
sI38
I53
sssS'dear'
p104
(dp105
g5
I16
sg6
(dp106
I1
I2
sI34
I1
sI3
I1
sI4
I1
sI5
I1
sI38
I3
sI33
I1
sI8
I4
sI10
I13
sI11
I2
sI21
I1
sI22
I2
sI23
I1
sI36
I2
sI28
I3
sI30
I1
sssS'our'
p107
(dp108
g5
I35
sg6
(dp109
I1
I1
sI2
I6
sI3
I2
sI4
I15
sI5
I14
sI6
I45
sI7
I101
sI8
I43
sI9
I1
sI10
I46
sI11
I3
sI13
I7
sI14
I8
sI15
I10
sI16
I19
sI17
I12
sI18
I10
sI19
I13
sI20
I5
sI21
I42
sI22
I1
sI23
I3
sI24
I2
sI25
I28
sI26
I3
sI27
I10
sI28
I6
sI29
I17
sI30
I8
sI31
I11
sI32
I4
sI33
I28
sI36
I31
sI37
I8
sI38
I23
sssS'what'
p110
(dp111
g5
I37
sg6
(dp112
I1
I14
sI2
I9
sI3
I2
sI4
I14
sI5
I12
sI6
I24
sI7
I36
sI8
I18
sI9
I3
sI10
I110
sI11
I10
sI12
I1
sI13
I4
sI14
I3
sI15
I15
sI16
I7
sI17
I5
sI18
I7
sI19
I11
sI20
I2
sI21
I13
sI22
I8
sI23
I4
sI24
I2
sI25
I21
sI26
I8
sI27
I10
sI28
I7
sI29
I12
sI30
I8
sI31
I8
sI32
I10
sI33
I16
sI34
I3
sI36
I21
sI37
I12
sI38
I17
sssS'said'
p113
(dp114
g5
I33
sg6
(dp115
I1
I8
sI2
I5
sI3
I2
sI4
I5
sI5
I4
sI6
I6
sI7
I10
sI8
I4
sI9
I1
sI10
I28
sI11
I2
sI12
I10
sI14
I1
sI15
I4
sI17
I2
sI18
I1
sI19
I3
sI20
I1
sI21
I3
sI23
I1
sI24
I1
sI25
I2
sI26
I5
sI28
I4
sI29
I3
sI30
I4
sI31
I2
sI32
I4
sI33
I4
sI34
I1
sI36
I9
sI37
I1
sI38
I1
sssS'for'
p116
(dp117
g5
I38
sg6
(dp118
I1
I44
sI2
I139
sI3
I16
sI4
I40
sI5
I101
sI6
I118
sI7
I93
sI8
I71
sI9
I39
sI10
I406
sI11
I20
sI12
I25
sI13
I12
sI14
I17
sI15
I125
sI16
I30
sI17
I19
sI18
I17
sI19
I76
sI20
I20
sI21
I73
sI22
I27
sI23
I94
sI24
I14
sI25
I38
sI26
I26
sI27
I34
sI28
I90
sI29
I33
sI30
I52
sI31
I57
sI32
I41
sI33
I59
sI34
I21
sI35
I1
sI36
I88
sI37
I58
sI38
I53
sssS'since'
p119
(dp120
g5
I24
sg6
(dp121
I1
I3
sI2
I1
sI4
I2
sI5
I16
sI6
I5
sI7
I2
sI8
I2
sI10
I20
sI11
I3
sI15
I2
sI16
I1
sI18
I2
sI19
I5
sI23
I2
sI25
I3
sI28
I5
sI29
I1
sI30
I3
sI31
I3
sI32
I2
sI33
I1
sI36
I2
sI37
I6
sI38
I2
sssS'yet'
p122
(dp123
g5
I18
sg6
(dp124
I1
I1
sI2
I1
sI4
I1
sI5
I5
sI6
I4
sI7
I2
sI10
I16
sI36
I5
sI15
I4
sI17
I1
sI23
I1
sI24
I3
sI25
I2
sI33
I1
sI28
I4
sI37
I3
sI30
I3
sI31
I2
sssS'does'
p125
(dp126
g5
I30
sg6
(dp127
I1
I2
sI2
I2
sI3
I2
sI4
I5
sI5
I2
sI6
I6
sI7
I4
sI8
I7
sI9
I1
sI10
I24
sI12
I1
sI13
I1
sI14
I4
sI16
I1
sI18
I6
sI19
I5
sI20
I1
sI21
I6
sI25
I9
sI26
I5
sI28
I1
sI29
I1
sI30
I1
sI31
I4
sI32
I3
sI33
I2
sI34
I1
sI36
I2
sI37
I1
sI38
I5
sssS'got'
p128
(dp129
g5
I29
sg6
(dp130
I1
I9
sI2
I7
sI3
I3
sI4
I2
sI5
I16
sI6
I10
sI7
I5
sI8
I1
sI9
I2
sI10
I24
sI11
I3
sI15
I1
sI16
I1
sI19
I2
sI21
I2
sI23
I6
sI24
I4
sI25
I1
sI26
I1
sI27
I1
sI28
I3
sI30
I7
sI31
I9
sI32
I1
sI33
I6
sI34
I2
sI36
I5
sI37
I7
sI38
I3
sssS'neither'
p131
(dp132
g5
I10
sg6
(dp133
I32
I1
sI33
I1
sI34
I1
sI4
I1
sI38
I1
sI10
I5
sI15
I1
sI21
I1
sI24
I1
sI28
I1
sssS'ever'
p134
(dp135
g5
I33
sg6
(dp136
I1
I3
sI2
I2
sI3
I3
sI4
I2
sI5
I4
sI6
I2
sI7
I5
sI8
I8
sI9
I4
sI10
I26
sI11
I4
sI12
I1
sI15
I3
sI16
I1
sI17
I2
sI18
I1
sI19
I6
sI20
I1
sI21
I1
sI22
I3
sI25
I4
sI26
I1
sI27
I2
sI28
I6
sI29
I3
sI30
I2
sI31
I2
sI32
I1
sI33
I2
sI34
I1
sI36
I3
sI37
I1
sI38
I1
sssS'across'
p137
(dp138
g5
I19
sg6
(dp139
I32
I1
sI1
I2
sI2
I1
sI36
I11
sI5
I6
sI6
I7
sI7
I4
sI10
I2
sI13
I2
sI14
I2
sI15
I3
sI19
I3
sI21
I2
sI22
I1
sI25
I1
sI33
I1
sI38
I3
sI30
I3
sI31
I1
sssS'she'
p140
(dp141
g5
I20
sg6
(dp142
I32
I1
sI1
I1
sI2
I2
sI4
I18
sI5
I9
sI10
I4
sI12
I1
sI13
I1
sI15
I4
sI18
I1
sI19
I2
sI20
I3
sI21
I1
sI23
I4
sI36
I4
sI26
I1
sI28
I1
sI29
I1
sI30
I5
sI37
I1
sssS'be'
p143
(dp144
g5
I37
sg6
(dp145
I1
I20
sI2
I50
sI3
I6
sI4
I29
sI5
I49
sI6
I94
sI7
I80
sI8
I44
sI9
I4
sI10
I223
sI11
I18
sI12
I4
sI13
I11
sI14
I9
sI15
I56
sI16
I11
sI17
I9
sI18
I25
sI19
I70
sI20
I10
sI21
I57
sI22
I12
sI23
I41
sI24
I11
sI25
I50
sI26
I10
sI27
I3
sI28
I24
sI29
I24
sI30
I12
sI31
I26
sI32
I28
sI33
I26
sI34
I14
sI36
I67
sI37
I21
sI38
I32
sssS'we'
p146
(dp147
g5
I37
sg6
(dp148
I1
I6
sI2
I21
sI3
I4
sI4
I22
sI5
I30
sI6
I87
sI7
I146
sI8
I77
sI9
I1
sI10
I113
sI11
I17
sI12
I2
sI13
I5
sI14
I7
sI15
I31
sI16
I31
sI17
I20
sI18
I9
sI19
I32
sI20
I7
sI21
I59
sI22
I6
sI23
I19
sI24
I2
sI25
I50
sI26
I8
sI27
I15
sI28
I12
sI29
I22
sI30
I11
sI31
I18
sI32
I29
sI33
I27
sI34
I7
sI36
I49
sI37
I14
sI38
I84
sssS'after'
p149
(dp150
g5
I35
sg6
(dp151
I1
I10
sI2
I11
sI3
I4
sI4
I3
sI5
I29
sI6
I18
sI7
I7
sI8
I7
sI9
I2
sI10
I66
sI12
I5
sI13
I1
sI14
I3
sI15
I18
sI16
I8
sI17
I1
sI18
I1
sI19
I9
sI20
I1
sI21
I2
sI22
I4
sI23
I13
sI25
I4
sI26
I6
sI27
I3
sI28
I15
sI29
I2
sI30
I5
sI31
I19
sI32
I1
sI33
I10
sI34
I5
sI36
I6
sI37
I8
sI38
I6
sssS'however'
p152
(dp153
g5
I18
sg6
(dp154
I32
I1
sI1
I1
sI2
I3
sI4
I1
sI5
I2
sI6
I1
sI7
I2
sI8
I1
sI10
I4
sI13
I1
sI15
I3
sI18
I2
sI19
I1
sI23
I2
sI25
I3
sI26
I1
sI27
I1
sI28
I1
sssS'let'
p155
(dp156
g5
I27
sg6
(dp157
I2
I6
sI3
I1
sI4
I6
sI5
I3
sI6
I6
sI7
I6
sI8
I6
sI10
I30
sI11
I1
sI12
I1
sI14
I1
sI15
I5
sI16
I2
sI19
I9
sI21
I4
sI23
I4
sI24
I1
sI25
I3
sI28
I2
sI29
I1
sI30
I5
sI32
I1
sI33
I3
sI34
I6
sI36
I3
sI37
I4
sI38
I2
sssS'hers'
p158
(dp159
g5
I1
sg6
(dp160
I10
I1
sssS'by'
p161
(dp162
g5
I37
sg6
(dp163
I1
I25
sI2
I12
sI3
I50
sI4
I13
sI5
I23
sI6
I27
sI7
I43
sI8
I16
sI9
I5
sI10
I140
sI11
I8
sI12
I5
sI13
I5
sI14
I7
sI15
I13
sI16
I10
sI17
I6
sI18
I12
sI19
I43
sI20
I8
sI21
I21
sI22
I2
sI23
I7
sI24
I4
sI25
I11
sI26
I7
sI27
I7
sI28
I5
sI29
I16
sI30
I10
sI31
I10
sI32
I21
sI33
I13
sI34
I3
sI36
I23
sI37
I7
sI38
I22
sssS'on'
p164
(dp165
g5
I38
sg6
(dp166
I1
I49
sI2
I51
sI3
I12
sI4
I31
sI5
I52
sI6
I70
sI7
I88
sI8
I46
sI9
I6
sI10
I333
sI11
I29
sI12
I19
sI13
I14
sI14
I15
sI15
I54
sI16
I20
sI17
I6
sI18
I21
sI19
I44
sI20
I14
sI21
I39
sI22
I26
sI23
I27
sI24
I8
sI25
I39
sI26
I26
sI27
I23
sI28
I17
sI29
I16
sI30
I19
sI31
I38
sI32
I23
sI33
I30
sI34
I8
sI35
I1
sI36
I41
sI37
I24
sI38
I22
sssS'about'
p167
(dp168
g5
I37
sg6
(dp169
I1
I14
sI2
I5
sI3
I3
sI4
I13
sI5
I23
sI6
I36
sI7
I46
sI8
I16
sI9
I3
sI10
I106
sI11
I14
sI12
I14
sI13
I1
sI14
I5
sI15
I21
sI16
I8
sI17
I5
sI18
I3
sI19
I19
sI20
I5
sI21
I19
sI22
I1
sI23
I18
sI24
I4
sI25
I21
sI26
I4
sI27
I12
sI28
I15
sI29
I19
sI30
I11
sI31
I12
sI32
I13
sI33
I9
sI34
I1
sI36
I23
sI37
I14
sI38
I16
sssS'her'
p170
(dp171
g5
I20
sg6
(dp172
I32
I2
sI1
I1
sI4
I20
sI5
I8
sI6
I1
sI7
I4
sI10
I11
sI12
I1
sI14
I1
sI37
I1
sI19
I2
sI20
I4
sI23
I4
sI36
I4
sI33
I1
sI38
I1
sI28
I3
sI29
I2
sI30
I7
sI31
I2
sssS'of'
p173
(dp174
g5
I37
sg6
(dp175
I1
I103
sI2
I92
sI3
I43
sI4
I97
sI5
I199
sI6
I260
sI7
I263
sI8
I157
sI9
I35
sI10
I880
sI11
I50
sI12
I34
sI13
I33
sI14
I46
sI15
I174
sI16
I69
sI17
I44
sI18
I67
sI19
I233
sI20
I41
sI21
I144
sI22
I42
sI23
I135
sI24
I14
sI25
I125
sI26
I60
sI27
I43
sI28
I98
sI29
I69
sI30
I78
sI31
I112
sI32
I93
sI33
I125
sI34
I38
sI36
I219
sI37
I100
sI38
I114
sssS'could'
p176
(dp177
g5
I31
sg6
(dp178
I1
I5
sI2
I5
sI4
I4
sI5
I13
sI6
I12
sI7
I8
sI8
I5
sI9
I5
sI10
I27
sI11
I2
sI12
I1
sI13
I1
sI14
I1
sI15
I3
sI16
I1
sI17
I1
sI19
I12
sI20
I1
sI21
I8
sI22
I1
sI23
I5
sI25
I3
sI26
I7
sI28
I1
sI30
I3
sI31
I12
sI33
I3
sI34
I3
sI36
I9
sI37
I8
sI38
I2
sssS'must'
p179
(dp180
g5
I32
sg6
(dp181
I1
I5
sI2
I2
sI3
I1
sI4
I4
sI5
I8
sI6
I9
sI7
I6
sI8
I11
sI10
I47
sI11
I1
sI13
I1
sI14
I1
sI15
I3
sI18
I3
sI19
I4
sI21
I2
sI22
I1
sI23
I3
sI24
I3
sI25
I7
sI26
I3
sI27
I1
sI28
I1
sI29
I2
sI30
I4
sI31
I6
sI32
I7
sI33
I3
sI34
I1
sI36
I2
sI37
I8
sI38
I2
sssS'or'
p182
(dp183
g5
I35
sg6
(dp184
I1
I17
sI2
I12
sI3
I4
sI4
I17
sI5
I19
sI6
I39
sI7
I49
sI8
I18
sI10
I114
sI11
I9
sI12
I2
sI13
I2
sI15
I13
sI16
I2
sI17
I6
sI18
I6
sI19
I24
sI20
I9
sI21
I23
sI22
I1
sI23
I9
sI24
I2
sI25
I22
sI26
I11
sI27
I3
sI28
I11
sI29
I12
sI30
I10
sI31
I9
sI32
I20
sI33
I22
sI34
I2
sI36
I25
sI37
I6
sI38
I16
sssS'among'
p185
(dp186
g5
I19
sg6
(dp187
I32
I1
sI1
I1
sI2
I2
sI33
I2
sI4
I3
sI5
I4
sI6
I2
sI7
I1
sI10
I6
sI14
I1
sI15
I2
sI16
I1
sI19
I5
sI21
I2
sI36
I1
sI26
I1
sI29
I1
sI30
I1
sI37
I5
sssS'own'
p188
(dp189
g5
I33
sg6
(dp190
I1
I2
sI2
I2
sI3
I2
sI4
I3
sI5
I4
sI6
I11
sI7
I13
sI8
I11
sI10
I19
sI11
I3
sI12
I2
sI15
I2
sI16
I2
sI17
I1
sI18
I4
sI19
I2
sI20
I1
sI21
I3
sI22
I2
sI23
I2
sI24
I1
sI25
I4
sI26
I1
sI28
I2
sI29
I4
sI30
I1
sI31
I5
sI32
I1
sI33
I3
sI34
I1
sI36
I10
sI37
I5
sI38
I6
sssS'into'
p191
(dp192
g5
I36
sg6
(dp193
I1
I5
sI2
I5
sI3
I2
sI4
I1
sI5
I7
sI6
I17
sI7
I10
sI8
I4
sI9
I2
sI10
I30
sI11
I2
sI12
I2
sI13
I6
sI14
I2
sI15
I3
sI16
I1
sI18
I1
sI19
I6
sI20
I2
sI21
I10
sI22
I1
sI23
I4
sI24
I1
sI25
I6
sI26
I1
sI27
I2
sI28
I1
sI29
I4
sI30
I2
sI31
I8
sI32
I1
sI33
I2
sI34
I5
sI36
I4
sI37
I4
sI38
I7
sssS'least'
p194
(dp195
g5
I23
sg6
(dp196
I1
I3
sI2
I2
sI4
I1
sI6
I5
sI7
I5
sI8
I1
sI9
I2
sI10
I24
sI15
I2
sI16
I1
sI18
I3
sI19
I1
sI21
I3
sI25
I4
sI26
I1
sI28
I1
sI29
I1
sI30
I3
sI32
I2
sI33
I3
sI36
I4
sI37
I1
sI38
I1
sssS'your'
p197
(dp198
g5
I38
sg6
(dp199
I1
I52
sI2
I103
sI3
I16
sI4
I24
sI5
I112
sI6
I75
sI7
I49
sI8
I29
sI9
I41
sI10
I500
sI11
I42
sI12
I2
sI13
I17
sI14
I13
sI15
I117
sI16
I21
sI17
I15
sI18
I9
sI19
I34
sI20
I13
sI21
I19
sI22
I17
sI23
I115
sI24
I10
sI25
I27
sI26
I29
sI27
I16
sI28
I60
sI29
I18
sI30
I61
sI31
I98
sI32
I25
sI33
I15
sI34
I28
sI35
I1
sI36
I84
sI37
I72
sI38
I23
sssS'from'
p200
(dp201
g5
I37
sg6
(dp202
I1
I21
sI2
I29
sI3
I30
sI4
I16
sI5
I39
sI6
I21
sI7
I54
sI8
I35
sI9
I9
sI10
I233
sI11
I14
sI12
I10
sI13
I13
sI14
I3
sI15
I28
sI16
I8
sI17
I5
sI18
I10
sI19
I38
sI20
I7
sI21
I26
sI22
I11
sI23
I21
sI24
I7
sI25
I15
sI26
I11
sI27
I15
sI28
I20
sI29
I9
sI30
I20
sI31
I23
sI32
I19
sI33
I10
sI34
I2
sI36
I39
sI37
I20
sI38
I16
sssS'would'
p203
(dp204
g5
I37
sg6
(dp205
I1
I14
sI2
I7
sI3
I3
sI4
I10
sI5
I18
sI6
I51
sI7
I21
sI8
I17
sI9
I3
sI10
I96
sI11
I3
sI12
I1
sI13
I6
sI14
I4
sI15
I17
sI16
I7
sI17
I4
sI18
I2
sI19
I24
sI20
I4
sI21
I14
sI22
I3
sI23
I12
sI24
I2
sI25
I22
sI26
I8
sI27
I1
sI28
I10
sI29
I11
sI30
I12
sI31
I10
sI32
I11
sI33
I11
sI34
I7
sI36
I24
sI37
I15
sI38
I9
sssS'whom'
p206
(dp207
g5
I12
sg6
(dp208
I32
I2
sI33
I1
sI2
I2
sI37
I1
sI6
I2
sI7
I3
sI8
I1
sI10
I6
sI19
I1
sI21
I1
sI26
I1
sI31
I1
sssS'there'
p209
(dp210
g5
I37
sg6
(dp211
I1
I10
sI2
I5
sI3
I4
sI4
I12
sI5
I20
sI6
I33
sI7
I34
sI8
I17
sI9
I3
sI10
I96
sI11
I4
sI12
I5
sI13
I4
sI14
I2
sI15
I6
sI16
I7
sI17
I4
sI18
I7
sI19
I17
sI20
I7
sI21
I22
sI22
I2
sI23
I4
sI24
I4
sI25
I17
sI26
I8
sI27
I2
sI28
I8
sI29
I10
sI30
I3
sI31
I12
sI32
I9
sI33
I6
sI34
I5
sI36
I23
sI37
I11
sI38
I14
sssS'been'
p212
(dp213
g5
I36
sg6
(dp214
I1
I11
sI2
I12
sI3
I2
sI4
I5
sI5
I20
sI6
I14
sI7
I14
sI8
I6
sI9
I4
sI10
I89
sI11
I3
sI12
I6
sI13
I3
sI14
I1
sI15
I8
sI16
I4
sI17
I2
sI18
I2
sI19
I20
sI20
I2
sI21
I7
sI22
I2
sI23
I9
sI24
I1
sI25
I10
sI26
I4
sI27
I2
sI28
I2
sI29
I3
sI30
I6
sI31
I7
sI32
I4
sI33
I4
sI36
I12
sI37
I6
sI38
I8
sssS'their'
p215
(dp216
g5
I35
sg6
(dp217
I1
I5
sI3
I4
sI4
I16
sI5
I6
sI6
I41
sI7
I33
sI8
I22
sI9
I3
sI10
I84
sI11
I7
sI12
I6
sI13
I3
sI14
I2
sI15
I12
sI16
I5
sI17
I1
sI18
I13
sI19
I18
sI20
I2
sI21
I25
sI22
I1
sI23
I1
sI24
I2
sI25
I17
sI26
I10
sI27
I3
sI29
I11
sI30
I5
sI31
I3
sI32
I7
sI33
I17
sI34
I4
sI36
I29
sI37
I1
sI38
I9
sssS'too'
p218
(dp219
g5
I37
sg6
(dp220
I1
I12
sI2
I14
sI3
I3
sI4
I4
sI5
I28
sI6
I16
sI7
I12
sI8
I12
sI9
I3
sI10
I70
sI11
I3
sI12
I1
sI13
I2
sI14
I1
sI15
I14
sI16
I1
sI17
I1
sI18
I3
sI19
I7
sI20
I2
sI21
I5
sI22
I4
sI23
I12
sI24
I1
sI25
I12
sI26
I6
sI27
I1
sI28
I9
sI29
I3
sI30
I15
sI31
I16
sI32
I9
sI33
I6
sI34
I3
sI36
I18
sI37
I9
sI38
I2
sssS'was'
p221
(dp222
g5
I36
sg6
(dp223
I1
I30
sI2
I26
sI3
I21
sI4
I27
sI5
I72
sI6
I35
sI7
I24
sI8
I12
sI9
I13
sI10
I470
sI11
I19
sI12
I18
sI14
I3
sI15
I32
sI16
I11
sI17
I11
sI18
I3
sI19
I22
sI20
I8
sI21
I7
sI22
I10
sI23
I28
sI24
I3
sI25
I16
sI26
I31
sI27
I4
sI28
I29
sI29
I11
sI30
I40
sI31
I49
sI32
I15
sI33
I15
sI34
I10
sI36
I42
sI37
I30
sI38
I14
sssS'wants'
p224
(dp225
g5
I18
sg6
(dp226
I32
I2
sI2
I1
sI4
I2
sI37
I1
sI6
I1
sI7
I1
sI8
I5
sI10
I5
sI12
I1
sI14
I2
sI17
I2
sI19
I1
sI20
I2
sI21
I4
sI25
I7
sI38
I2
sI28
I1
sI29
I1
sssS'that'
p227
(dp228
g5
I37
sg6
(dp229
I1
I66
sI2
I47
sI3
I21
sI4
I89
sI5
I82
sI6
I138
sI7
I146
sI8
I87
sI9
I27
sI10
I553
sI11
I30
sI12
I24
sI13
I7
sI14
I20
sI15
I64
sI16
I31
sI17
I20
sI18
I19
sI19
I118
sI20
I11
sI21
I59
sI22
I18
sI23
I48
sI24
I17
sI25
I82
sI26
I31
sI27
I17
sI28
I39
sI29
I32
sI30
I45
sI31
I43
sI32
I65
sI33
I45
sI34
I13
sI36
I90
sI37
I41
sI38
I117
sssS'but'
p230
(dp231
g5
I37
sg6
(dp232
I1
I17
sI2
I37
sI3
I11
sI4
I22
sI5
I45
sI6
I59
sI7
I78
sI8
I50
sI9
I11
sI10
I309
sI11
I22
sI12
I8
sI13
I5
sI14
I13
sI15
I38
sI16
I17
sI17
I10
sI18
I7
sI19
I25
sI20
I7
sI21
I27
sI22
I12
sI23
I16
sI24
I6
sI25
I33
sI26
I15
sI27
I6
sI28
I31
sI29
I28
sI30
I26
sI31
I21
sI32
I36
sI33
I17
sI34
I17
sI36
I41
sI37
I25
sI38
I44
sssS'else'
p233
(dp234
g5
I23
sg6
(dp235
I1
I2
sI3
I1
sI5
I2
sI6
I7
sI7
I2
sI8
I3
sI10
I17
sI11
I4
sI15
I2
sI16
I3
sI19
I3
sI21
I4
sI22
I1
sI25
I2
sI26
I7
sI28
I2
sI29
I1
sI32
I1
sI33
I1
sI34
I2
sI36
I2
sI37
I1
sI38
I2
sssS'with'
p236
(dp237
g5
I37
sg6
(dp238
I1
I26
sI2
I33
sI3
I11
sI4
I20
sI5
I75
sI6
I35
sI7
I71
sI8
I53
sI9
I10
sI10
I246
sI11
I13
sI12
I14
sI13
I3
sI14
I8
sI15
I49
sI16
I8
sI17
I12
sI18
I7
sI19
I30
sI20
I6
sI21
I29
sI22
I12
sI23
I24
sI24
I7
sI25
I52
sI26
I12
sI27
I17
sI28
I19
sI29
I21
sI30
I24
sI31
I24
sI32
I36
sI33
I27
sI34
I10
sI36
I51
sI37
I38
sI38
I26
sssS'than'
p239
(dp240
g5
I33
sg6
(dp241
I1
I5
sI2
I11
sI4
I6
sI5
I8
sI6
I26
sI7
I20
sI8
I11
sI9
I4
sI10
I90
sI11
I6
sI12
I2
sI13
I6
sI15
I12
sI16
I12
sI17
I5
sI19
I16
sI20
I1
sI21
I9
sI22
I1
sI23
I6
sI24
I1
sI25
I15
sI27
I2
sI28
I7
sI29
I8
sI30
I2
sI31
I3
sI32
I7
sI33
I14
sI34
I2
sI36
I20
sI37
I4
sI38
I14
sssS'he'
p242
(dp243
g5
I34
sg6
(dp244
I1
I37
sI2
I3
sI3
I3
sI4
I4
sI5
I16
sI6
I3
sI7
I14
sI8
I3
sI10
I126
sI11
I4
sI12
I10
sI13
I1
sI14
I3
sI15
I4
sI16
I1
sI17
I7
sI18
I6
sI19
I14
sI21
I6
sI22
I5
sI23
I2
sI24
I3
sI25
I1
sI26
I21
sI28
I10
sI29
I1
sI30
I9
sI31
I2
sI32
I6
sI33
I3
sI34
I1
sI36
I12
sI37
I6
sI38
I2
sssS'me'
p245
(dp246
g5
I36
sg6
(dp247
I1
I20
sI2
I20
sI3
I17
sI4
I10
sI5
I73
sI6
I26
sI7
I24
sI8
I17
sI9
I18
sI10
I115
sI11
I13
sI12
I27
sI13
I1
sI14
I5
sI15
I34
sI16
I7
sI17
I2
sI19
I14
sI20
I4
sI21
I9
sI22
I5
sI23
I31
sI24
I1
sI25
I4
sI26
I14
sI27
I8
sI28
I28
sI29
I5
sI30
I34
sI31
I27
sI32
I5
sI33
I12
sI34
I12
sI36
I40
sI37
I32
sI38
I8
sssS'this'
p248
(dp249
g5
I37
sg6
(dp250
I1
I44
sI2
I17
sI3
I6
sI4
I25
sI5
I80
sI6
I88
sI7
I81
sI8
I32
sI9
I18
sI10
I282
sI11
I31
sI12
I19
sI13
I15
sI14
I11
sI15
I52
sI16
I24
sI17
I7
sI18
I22
sI19
I56
sI20
I16
sI21
I30
sI22
I11
sI23
I25
sI24
I5
sI25
I28
sI26
I20
sI27
I22
sI28
I29
sI29
I31
sI30
I30
sI31
I40
sI32
I24
sI33
I35
sI34
I19
sI36
I55
sI37
I27
sI38
I25
sssS'as'
p251
(dp252
g5
I37
sg6
(dp253
I1
I35
sI2
I46
sI3
I12
sI4
I28
sI5
I73
sI6
I71
sI7
I44
sI8
I40
sI9
I16
sI10
I253
sI11
I14
sI12
I12
sI13
I3
sI14
I12
sI15
I47
sI16
I9
sI17
I15
sI18
I8
sI19
I50
sI20
I8
sI21
I30
sI22
I17
sI23
I43
sI24
I6
sI25
I28
sI26
I17
sI27
I11
sI28
I36
sI29
I15
sI30
I28
sI31
I23
sI32
I30
sI33
I28
sI34
I10
sI36
I52
sI37
I23
sI38
I16
sssS'us'
p254
(dp255
g5
I35
sg6
(dp256
I2
I8
sI3
I1
sI4
I11
sI5
I16
sI6
I27
sI7
I40
sI8
I13
sI9
I3
sI10
I52
sI11
I3
sI12
I2
sI13
I2
sI14
I2
sI15
I6
sI16
I12
sI17
I7
sI18
I2
sI19
I14
sI20
I6
sI21
I9
sI22
I4
sI23
I6
sI24
I1
sI25
I12
sI26
I2
sI27
I2
sI28
I14
sI29
I3
sI30
I4
sI31
I2
sI33
I9
sI34
I1
sI36
I8
sI37
I11
sI38
I14
sssS'will'
p257
(dp258
g5
I37
sg6
(dp259
I1
I14
sI2
I44
sI3
I6
sI4
I23
sI5
I35
sI6
I52
sI7
I71
sI8
I36
sI9
I5
sI10
I153
sI11
I16
sI12
I2
sI13
I6
sI14
I15
sI15
I68
sI16
I16
sI17
I7
sI18
I17
sI19
I42
sI20
I13
sI21
I35
sI22
I12
sI23
I27
sI24
I6
sI25
I28
sI26
I9
sI27
I11
sI28
I24
sI29
I19
sI30
I13
sI31
I20
sI32
I14
sI33
I26
sI34
I8
sI36
I36
sI37
I14
sI38
I29
sssS'while'
p260
(dp261
g5
I31
sg6
(dp262
I1
I1
sI2
I10
sI3
I1
sI4
I5
sI5
I19
sI6
I3
sI7
I2
sI8
I6
sI9
I4
sI10
I18
sI12
I4
sI15
I7
sI16
I1
sI17
I5
sI19
I5
sI20
I5
sI21
I2
sI22
I1
sI23
I3
sI25
I3
sI26
I1
sI27
I1
sI28
I5
sI29
I1
sI30
I4
sI31
I1
sI32
I1
sI34
I1
sI36
I6
sI37
I4
sI38
I2
sssS'can'
p263
(dp264
g5
I36
sg6
(dp265
I1
I19
sI2
I33
sI3
I8
sI4
I13
sI5
I34
sI6
I46
sI7
I70
sI8
I40
sI9
I8
sI10
I158
sI11
I9
sI13
I2
sI14
I8
sI15
I15
sI16
I13
sI17
I3
sI18
I15
sI19
I39
sI20
I7
sI21
I30
sI22
I5
sI23
I18
sI24
I4
sI25
I21
sI26
I16
sI27
I8
sI28
I14
sI29
I20
sI30
I12
sI31
I17
sI32
I22
sI33
I29
sI34
I6
sI36
I46
sI37
I15
sI38
I30
sssS'were'
p266
(dp267
g5
I32
sg6
(dp268
I1
I11
sI2
I4
sI3
I3
sI4
I1
sI5
I5
sI6
I17
sI7
I11
sI8
I3
sI10
I64
sI11
I4
sI12
I5
sI13
I1
sI15
I6
sI16
I8
sI17
I3
sI18
I1
sI19
I7
sI20
I2
sI21
I5
sI23
I4
sI25
I4
sI26
I2
sI27
I7
sI28
I5
sI29
I7
sI30
I5
sI31
I5
sI32
I2
sI33
I6
sI36
I8
sI37
I16
sI38
I4
sssS'my'
p269
(dp270
g5
I38
sg6
(dp271
I1
I24
sI2
I37
sI3
I9
sI4
I7
sI5
I95
sI6
I43
sI7
I30
sI8
I30
sI9
I27
sI10
I180
sI11
I21
sI12
I27
sI13
I1
sI14
I5
sI15
I71
sI16
I6
sI17
I1
sI18
I3
sI19
I23
sI20
I3
sI21
I28
sI22
I10
sI23
I65
sI24
I4
sI25
I10
sI26
I12
sI27
I11
sI28
I72
sI29
I9
sI30
I52
sI31
I58
sI32
I5
sI33
I10
sI34
I7
sI35
I1
sI36
I67
sI37
I46
sI38
I7
sssS'and'
p272
(dp273
g5
I37
sg6
(dp274
I1
I124
sI2
I105
sI3
I41
sI4
I73
sI5
I226
sI6
I208
sI7
I233
sI8
I135
sI9
I50
sI10
I1071
sI11
I64
sI12
I71
sI13
I32
sI14
I43
sI15
I185
sI16
I60
sI17
I43
sI18
I24
sI19
I185
sI20
I32
sI21
I128
sI22
I22
sI23
I121
sI24
I32
sI25
I113
sI26
I64
sI27
I64
sI28
I116
sI29
I87
sI30
I75
sI31
I128
sI32
I81
sI33
I79
sI34
I36
sI36
I227
sI37
I97
sI38
I124
sssS'do'
p275
(dp276
g5
I38
sg6
(dp277
I1
I19
sI2
I18
sI3
I8
sI4
I23
sI5
I18
sI6
I23
sI7
I49
sI8
I17
sI9
I3
sI10
I111
sI11
I6
sI12
I8
sI13
I10
sI14
I3
sI15
I21
sI16
I3
sI17
I8
sI18
I5
sI19
I23
sI20
I5
sI21
I15
sI22
I7
sI23
I10
sI24
I2
sI25
I16
sI26
I7
sI27
I6
sI28
I16
sI29
I8
sI30
I6
sI31
I22
sI32
I26
sI33
I24
sI34
I7
sI35
I1
sI36
I27
sI37
I10
sI38
I30
sssS'almost'
p278
(dp279
g5
I22
sg6
(dp280
I1
I3
sI2
I1
sI3
I2
sI4
I2
sI5
I1
sI6
I6
sI7
I3
sI9
I1
sI10
I19
sI11
I1
sI12
I1
sI13
I1
sI15
I4
sI21
I1
sI23
I1
sI25
I2
sI26
I1
sI28
I1
sI30
I1
sI31
I3
sI36
I2
sI37
I2
sssS'is'
p281
(dp282
g5
I38
sg6
(dp283
I1
I102
sI2
I41
sI3
I30
sI4
I49
sI5
I139
sI6
I195
sI7
I217
sI8
I112
sI9
I25
sI10
I874
sI11
I50
sI12
I34
sI13
I27
sI14
I33
sI15
I105
sI16
I56
sI17
I30
sI18
I27
sI19
I140
sI20
I30
sI21
I113
sI22
I13
sI23
I55
sI24
I5
sI25
I95
sI26
I47
sI27
I37
sI28
I59
sI29
I57
sI30
I59
sI31
I73
sI32
I60
sI33
I98
sI34
I29
sI35
I2
sI36
I129
sI37
I58
sI38
I91
sssS'am'
p284
(dp285
g5
I37
sg6
(dp286
I1
I48
sI2
I65
sI3
I11
sI4
I54
sI5
I105
sI6
I61
sI7
I71
sI8
I45
sI9
I33
sI10
I329
sI11
I24
sI12
I12
sI14
I18
sI15
I57
sI16
I18
sI17
I8
sI18
I15
sI19
I29
sI20
I9
sI21
I32
sI22
I28
sI23
I69
sI24
I14
sI25
I35
sI26
I27
sI27
I28
sI28
I44
sI29
I20
sI30
I75
sI31
I58
sI32
I27
sI33
I28
sI34
I16
sI35
I1
sI36
I61
sI37
I45
sI38
I42
sssS'it'
p287
(dp288
g5
I38
sg6
(dp289
I1
I52
sI2
I72
sI3
I22
sI4
I43
sI5
I142
sI6
I88
sI7
I94
sI8
I80
sI9
I43
sI10
I603
sI11
I27
sI12
I42
sI13
I10
sI14
I27
sI15
I103
sI16
I27
sI17
I22
sI18
I17
sI19
I88
sI20
I18
sI21
I65
sI22
I27
sI23
I71
sI24
I4
sI25
I54
sI26
I41
sI27
I21
sI28
I55
sI29
I36
sI30
I53
sI31
I75
sI32
I47
sI33
I47
sI34
I30
sI35
I1
sI36
I81
sI37
I69
sI38
I58
sssS'an'
p290
(dp291
g5
I38
sg6
(dp292
I1
I9
sI2
I21
sI3
I6
sI4
I13
sI5
I31
sI6
I32
sI7
I32
sI8
I9
sI9
I3
sI10
I125
sI11
I6
sI12
I12
sI13
I2
sI14
I2
sI15
I24
sI16
I11
sI17
I8
sI18
I3
sI19
I31
sI20
I3
sI21
I11
sI22
I3
sI23
I8
sI24
I4
sI25
I18
sI26
I4
sI27
I2
sI28
I7
sI29
I11
sI30
I10
sI31
I20
sI32
I10
sI33
I8
sI34
I2
sI35
I1
sI36
I46
sI37
I11
sI38
I11
sssS'say'
p293
(dp294
g5
I35
sg6
(dp295
I1
I9
sI2
I9
sI3
I1
sI4
I3
sI5
I17
sI6
I26
sI7
I17
sI8
I12
sI9
I4
sI10
I102
sI11
I2
sI12
I3
sI13
I2
sI14
I5
sI15
I14
sI16
I4
sI18
I3
sI19
I5
sI20
I5
sI21
I12
sI23
I9
sI24
I4
sI25
I4
sI26
I10
sI27
I3
sI28
I13
sI29
I4
sI30
I16
sI31
I7
sI32
I9
sI33
I12
sI34
I4
sI36
I12
sI37
I16
sI38
I10
sssS'at'
p296
(dp297
g5
I38
sg6
(dp298
I1
I103
sI2
I154
sI3
I51
sI4
I90
sI5
I140
sI6
I145
sI7
I161
sI8
I111
sI9
I65
sI10
I644
sI11
I38
sI12
I7
sI13
I9
sI14
I37
sI15
I162
sI16
I41
sI17
I31
sI18
I39
sI19
I69
sI20
I30
sI21
I63
sI22
I97
sI23
I140
sI24
I16
sI25
I71
sI26
I35
sI27
I50
sI28
I83
sI29
I51
sI30
I82
sI31
I114
sI32
I64
sI33
I77
sI34
I48
sI35
I2
sI36
I101
sI37
I80
sI38
I70
sssS'have'
p299
(dp300
g5
I38
sg6
(dp301
I1
I35
sI2
I41
sI3
I18
sI4
I27
sI5
I102
sI6
I100
sI7
I74
sI8
I73
sI9
I23
sI10
I468
sI11
I41
sI12
I27
sI13
I19
sI14
I18
sI15
I63
sI16
I19
sI17
I13
sI18
I21
sI19
I67
sI20
I8
sI21
I53
sI22
I14
sI23
I63
sI24
I10
sI25
I42
sI26
I29
sI27
I16
sI28
I49
sI29
I33
sI30
I49
sI31
I46
sI32
I30
sI33
I30
sI34
I18
sI35
I1
sI36
I78
sI37
I52
sI38
I36
sssS'in'
p302
(dp303
g5
I38
sg6
(dp304
I1
I70
sI2
I68
sI3
I12
sI4
I58
sI5
I142
sI6
I181
sI7
I196
sI8
I125
sI9
I38
sI10
I598
sI11
I43
sI12
I10
sI13
I20
sI14
I32
sI15
I104
sI16
I50
sI17
I30
sI18
I35
sI19
I179
sI20
I25
sI21
I112
sI22
I33
sI23
I52
sI24
I18
sI25
I82
sI26
I44
sI27
I56
sI28
I76
sI29
I61
sI30
I82
sI31
I89
sI32
I66
sI33
I74
sI34
I35
sI35
I1
sI36
I201
sI37
I86
sI38
I68
sssS'any'
p305
(dp306
g5
I35
sg6
(dp307
I1
I5
sI2
I6
sI3
I6
sI4
I6
sI5
I14
sI6
I15
sI7
I20
sI8
I10
sI9
I2
sI10
I45
sI11
I13
sI12
I1
sI13
I1
sI14
I6
sI15
I6
sI16
I2
sI17
I4
sI18
I7
sI19
I17
sI20
I1
sI21
I8
sI23
I6
sI25
I13
sI26
I6
sI27
I2
sI28
I4
sI29
I2
sI30
I6
sI31
I13
sI32
I14
sI33
I6
sI34
I4
sI36
I15
sI37
I5
sI38
I13
sssS'if'
p308
(dp309
g5
I36
sg6
(dp310
I1
I11
sI2
I10
sI3
I5
sI4
I12
sI5
I28
sI6
I40
sI7
I36
sI8
I23
sI9
I5
sI10
I107
sI11
I7
sI12
I4
sI13
I2
sI14
I4
sI15
I12
sI16
I2
sI17
I8
sI18
I7
sI19
I12
sI20
I3
sI21
I19
sI22
I7
sI23
I10
sI25
I22
sI26
I3
sI27
I3
sI28
I12
sI29
I6
sI30
I7
sI31
I7
sI32
I13
sI33
I9
sI34
I6
sI36
I32
sI37
I14
sI38
I14
sssS'no'
p311
(dp312
g5
I36
sg6
(dp313
I1
I17
sI2
I5
sI3
I7
sI4
I7
sI5
I16
sI6
I17
sI7
I17
sI8
I15
sI10
I83
sI11
I7
sI12
I4
sI13
I4
sI14
I3
sI15
I9
sI16
I6
sI17
I4
sI18
I4
sI19
I17
sI20
I5
sI21
I18
sI22
I2
sI23
I1
sI25
I10
sI26
I10
sI27
I3
sI28
I2
sI29
I6
sI30
I6
sI31
I6
sI32
I6
sI33
I11
sI34
I1
sI35
I1
sI36
I14
sI37
I5
sI38
I15
sssS'rather'
p314
(dp315
g5
I25
sg6
(dp316
I2
I4
sI4
I2
sI5
I1
sI6
I3
sI7
I5
sI10
I11
sI11
I2
sI13
I5
sI15
I2
sI16
I1
sI17
I3
sI18
I1
sI19
I5
sI20
I1
sI21
I3
sI23
I1
sI25
I4
sI28
I2
sI29
I4
sI30
I1
sI31
I1
sI32
I2
sI33
I5
sI36
I5
sI38
I4
sssS'when'
p317
(dp318
g5
I37
sg6
(dp319
I1
I9
sI2
I5
sI3
I1
sI4
I8
sI5
I27
sI6
I11
sI7
I23
sI8
I7
sI9
I2
sI10
I70
sI11
I3
sI12
I5
sI13
I1
sI14
I3
sI15
I10
sI16
I5
sI17
I4
sI18
I2
sI19
I13
sI20
I4
sI21
I11
sI22
I2
sI23
I7
sI24
I2
sI25
I3
sI26
I6
sI27
I3
sI28
I8
sI29
I6
sI30
I10
sI31
I13
sI32
I3
sI33
I11
sI34
I1
sI36
I9
sI37
I6
sI38
I10
sssS'tis'
p320
(dp321
g5
I2
sg6
(dp322
I9
I1
sI5
I1
sssS'also'
p323
(dp324
g5
I35
sg6
(dp325
I1
I7
sI2
I9
sI3
I4
sI4
I7
sI5
I22
sI6
I18
sI7
I26
sI8
I19
sI9
I7
sI10
I78
sI11
I5
sI12
I3
sI13
I3
sI14
I4
sI15
I21
sI16
I6
sI18
I10
sI19
I16
sI20
I4
sI21
I10
sI22
I3
sI23
I9
sI25
I6
sI26
I4
sI27
I7
sI28
I14
sI29
I5
sI30
I16
sI31
I20
sI32
I4
sI33
I8
sI34
I5
sI36
I15
sI37
I14
sI38
I4
sssS'other'
p326
(dp327
g5
I36
sg6
(dp328
I1
I7
sI2
I4
sI3
I1
sI4
I5
sI5
I15
sI6
I21
sI7
I23
sI8
I19
sI9
I2
sI10
I48
sI11
I1
sI12
I8
sI14
I2
sI15
I18
sI16
I7
sI17
I2
sI18
I2
sI19
I13
sI20
I9
sI21
I5
sI22
I1
sI23
I5
sI24
I3
sI25
I8
sI26
I8
sI27
I2
sI28
I5
sI29
I1
sI30
I9
sI31
I6
sI32
I7
sI33
I5
sI34
I2
sI36
I12
sI37
I7
sI38
I9
sssS'which'
p329
(dp330
g5
I36
sg6
(dp331
I1
I8
sI2
I9
sI3
I5
sI4
I10
sI5
I22
sI6
I27
sI7
I46
sI8
I20
sI9
I2
sI10
I97
sI11
I7
sI12
I3
sI13
I2
sI14
I3
sI15
I15
sI16
I10
sI17
I1
sI18
I5
sI19
I47
sI20
I5
sI21
I20
sI22
I1
sI23
I8
sI24
I3
sI25
I9
sI26
I7
sI27
I3
sI28
I11
sI29
I5
sI30
I9
sI31
I4
sI32
I12
sI33
I9
sI36
I22
sI37
I13
sI38
I14
sssS'you'
p332
(dp333
g5
I37
sg6
(dp334
I1
I91
sI2
I109
sI3
I30
sI4
I46
sI5
I127
sI6
I114
sI7
I83
sI8
I72
sI9
I39
sI10
I683
sI11
I63
sI12
I6
sI13
I37
sI14
I25
sI15
I98
sI16
I33
sI17
I7
sI18
I11
sI19
I47
sI20
I13
sI21
I39
sI22
I39
sI23
I75
sI24
I9
sI25
I47
sI26
I42
sI27
I23
sI28
I72
sI29
I29
sI30
I65
sI31
I82
sI32
I55
sI33
I29
sI34
I25
sI36
I113
sI37
I69
sI38
I32
sssS'may'
p335
(dp336
g5
I32
sg6
(dp337
I1
I5
sI2
I5
sI4
I6
sI5
I12
sI6
I9
sI7
I11
sI8
I7
sI9
I2
sI10
I35
sI11
I2
sI12
I1
sI14
I1
sI15
I5
sI16
I5
sI17
I1
sI18
I3
sI19
I9
sI21
I9
sI22
I1
sI23
I3
sI24
I2
sI25
I5
sI26
I1
sI29
I2
sI30
I1
sI31
I2
sI32
I4
sI33
I5
sI34
I3
sI36
I9
sI37
I1
sI38
I4
sssS'who'
p338
(dp339
g5
I37
sg6
(dp340
I1
I14
sI2
I3
sI3
I6
sI4
I18
sI5
I16
sI6
I50
sI7
I40
sI8
I26
sI9
I1
sI10
I127
sI11
I9
sI12
I7
sI13
I2
sI14
I2
sI15
I12
sI16
I6
sI17
I2
sI18
I8
sI19
I23
sI20
I5
sI21
I18
sI22
I4
sI23
I8
sI24
I1
sI25
I7
sI26
I7
sI27
I6
sI28
I17
sI29
I16
sI30
I15
sI31
I13
sI32
I11
sI33
I15
sI34
I3
sI36
I35
sI37
I9
sI38
I22
sssS'most'
p341
(dp342
g5
I31
sg6
(dp343
I1
I2
sI2
I4
sI4
I7
sI5
I8
sI6
I10
sI7
I8
sI8
I7
sI9
I1
sI10
I36
sI13
I1
sI14
I3
sI15
I8
sI16
I1
sI18
I3
sI19
I8
sI20
I4
sI21
I7
sI23
I5
sI24
I4
sI25
I6
sI26
I4
sI28
I6
sI29
I7
sI30
I5
sI31
I9
sI32
I2
sI33
I4
sI34
I1
sI36
I9
sI37
I8
sI38
I3
sssS'why'
p344
(dp345
g5
I32
sg6
(dp346
I1
I6
sI2
I4
sI3
I1
sI4
I10
sI5
I6
sI6
I6
sI7
I16
sI8
I3
sI9
I3
sI10
I40
sI11
I5
sI12
I2
sI13
I2
sI15
I3
sI16
I5
sI17
I3
sI18
I6
sI19
I6
sI20
I4
sI21
I8
sI22
I5
sI23
I3
sI26
I3
sI27
I5
sI28
I8
sI29
I3
sI30
I3
sI31
I4
sI32
I4
sI33
I4
sI36
I12
sI38
I2
sssS'a'
p347
(dp348
g5
I38
sg6
(dp349
I1
I104
sI2
I112
sI3
I34
sI4
I138
sI5
I197
sI6
I235
sI7
I202
sI8
I108
sI9
I45
sI10
I771
sI11
I50
sI12
I29
sI13
I30
sI14
I26
sI15
I156
sI16
I54
sI17
I46
sI18
I28
sI19
I152
sI20
I32
sI21
I114
sI22
I37
sI23
I102
sI24
I22
sI25
I97
sI26
I66
sI27
I40
sI28
I105
sI29
I67
sI30
I114
sI31
I96
sI32
I86
sI33
I91
sI34
I32
sI35
I1
sI36
I206
sI37
I111
sI38
I131
sssS'off'
p350
(dp351
g5
I25
sg6
(dp352
I1
I5
sI2
I5
sI4
I10
sI5
I8
sI6
I2
sI7
I5
sI8
I1
sI9
I2
sI10
I25
sI14
I3
sI15
I7
sI16
I1
sI17
I2
sI19
I2
sI20
I1
sI23
I3
sI26
I2
sI27
I1
sI28
I4
sI29
I3
sI30
I4
sI31
I4
sI32
I1
sI33
I1
sI37
I2
sssS'i'
p353
(dp354
g5
I37
sg6
(dp355
I1
I39
sI2
I73
sI3
I15
sI4
I23
sI5
I203
sI6
I71
sI7
I79
sI8
I49
sI9
I38
sI10
I556
sI11
I32
sI13
I2
sI14
I20
sI15
I90
sI16
I14
sI17
I15
sI18
I2
sI19
I18
sI20
I5
sI21
I23
sI22
I32
sI23
I151
sI24
I21
sI25
I16
sI26
I18
sI27
I17
sI28
I59
sI29
I14
sI30
I78
sI31
I149
sI32
I33
sI33
I38
sI34
I33
sI35
I4
sI36
I58
sI37
I118
sI38
I41
sssS'so'
p356
(dp357
g5
I37
sg6
(dp358
I1
I13
sI2
I16
sI3
I6
sI4
I16
sI5
I66
sI6
I29
sI7
I46
sI8
I18
sI9
I10
sI10
I140
sI11
I8
sI12
I8
sI13
I2
sI14
I5
sI15
I33
sI16
I15
sI17
I5
sI18
I3
sI19
I16
sI20
I4
sI21
I22
sI22
I5
sI23
I25
sI24
I3
sI25
I13
sI26
I13
sI27
I8
sI28
I19
sI29
I12
sI30
I17
sI31
I24
sI32
I12
sI33
I19
sI34
I4
sI36
I32
sI37
I26
sI38
I10
sssS'the'
p359
(dp360
g5
I38
sg6
(dp361
I1
I209
sI2
I166
sI3
I73
sI4
I173
sI5
I428
sI6
I472
sI7
I432
sI8
I236
sI9
I75
sI10
I2244
sI11
I103
sI12
I125
sI13
I44
sI14
I88
sI15
I348
sI16
I124
sI17
I69
sI18
I101
sI19
I418
sI20
I71
sI21
I316
sI22
I47
sI23
I169
sI24
I41
sI25
I197
sI26
I154
sI27
I108
sI28
I180
sI29
I145
sI30
I138
sI31
I159
sI32
I166
sI33
I223
sI34
I54
sI35
I1
sI36
I292
sI37
I152
sI38
I226
ssssS'doc_count'
p362
I38
s.